; Function Attrs: mustprogress nofree norecurse nosync nounwind sspstrong willreturn memory(read, inaccessiblemem: none) uwtable
define dso_local range(i64 1, 0) i64 @rb_iseq_first_lineno(ptr noundef readonly captures(none) %0) local_unnamed_addr #8 {
  %2 = getelementptr inbounds nuw i8, ptr %0, i64 16
  %3 = load ptr, ptr %2, align 8, !tbaa !7
  %4 = getelementptr inbounds nuw i8, ptr %3, i64 88
  %5 = load i32, ptr %4, align 8, !tbaa !251
  %6 = sext i32 %5 to i64
  %7 = shl nsw i64 %6, 1
  %8 = or disjoint i64 %7, 1
  ret i64 %8
}